; Function Attrs: mustprogress uwtable
define hidden void @_ZN4lean13is_annotationERKNS_4exprE(ptr dead_on_unwind noalias writable writeonly sret(%"class.lean::optional") align 8 captures(none) %0, ptr noundef nonnull readonly align 8 captures(none) dereferenceable(8) %1) local_unnamed_addr #0 personality ptr @__gxx_personality_v0 {
  %3 = alloca %"class.lean::expr", align 8
  %4 = alloca %"class.lean::optional.4", align 8
  call void @llvm.lifetime.start.p0(i64 8, ptr nonnull %3) #16
  %5 = load ptr, ptr %1, align 8, !tbaa !3
  store ptr %5, ptr %3, align 8, !tbaa !3
  %6 = ptrtoint ptr %5 to i64
  %7 = and i64 %6, 1
  %.not.i.i.i = icmp eq i64 %7, 0
  br i1 %.not.i.i.i, label %8, label %14

8:                                                ; preds = %2
  %.val.i.i.i.i = load i32, ptr %5, align 4, !tbaa !10
  %9 = icmp sgt i32 %.val.i.i.i.i, 0
  br i1 %9, label %10, label %12, !prof !13

10:                                               ; preds = %8
  %11 = add nuw nsw i32 %.val.i.i.i.i, 1
  store i32 %11, ptr %5, align 4, !tbaa !10
  br label %14

12:                                               ; preds = %8
  %.not.i.i.i.i = icmp eq i32 %.val.i.i.i.i, 0
  br i1 %.not.i.i.i.i, label %14, label %13

13:                                               ; preds = %12
  tail call void @lean_inc_ref_cold(ptr noundef nonnull %5)
  br label %14

14:                                               ; preds = %13, %12, %10, %2
  %15 = getelementptr i8, ptr %5, i64 4
  %.val.i.i.i.i9 = load i32, ptr %15, align 4
  %.mask.i = and i32 %.val.i.i.i.i9, -16777216
  %16 = icmp eq i32 %.mask.i, 167772160
  br i1 %16, label %17, label %_ZN4lean9some_exprERKNS_4exprE.exit

17:                                               ; preds = %14
  call void @llvm.lifetime.start.p0(i64 16, ptr nonnull %4) #16
  %18 = getelementptr inbounds nuw i8, ptr %5, i64 8
  %19 = load ptr, ptr @_ZN4leanL12g_annotationE, align 8, !tbaa !8
  invoke void @_ZN4lean8get_nameERKNS_8list_refINS_8pair_refINS_4nameENS_10data_valueEEEEERKS2_(ptr dead_on_unwind nonnull writable sret(%"class.lean::optional.4") align 8 %4, ptr noundef nonnull align 8 dereferenceable(8) %18, ptr noundef nonnull align 8 dereferenceable(8) %19)
          to label %20 unwind label %47

20:                                               ; preds = %17
  %21 = load i8, ptr %4, align 8, !tbaa !26, !range !29, !noundef !30
  %22 = trunc nuw i8 %21 to i1
  br i1 %22, label %23, label %.critedge

23:                                               ; preds = %20
  %24 = getelementptr inbounds nuw i8, ptr %4, i64 8
  %25 = load ptr, ptr %24, align 8, !tbaa !3
  %26 = ptrtoint ptr %25 to i64
  %27 = and i64 %26, 1
  %.not.i.i.i10 = icmp eq i64 %27, 0
  br i1 %.not.i.i.i10, label %28, label %38

28:                                               ; preds = %23
  %29 = load i32, ptr %25, align 4, !tbaa !10
  %30 = icmp sgt i32 %29, 1
  br i1 %30, label %31, label %33, !prof !13

31:                                               ; preds = %28
  %32 = add nsw i32 %29, -1
  store i32 %32, ptr %25, align 4, !tbaa !10
  br label %38

33:                                               ; preds = %28
  %.not.i.i.i.i11 = icmp eq i32 %29, 0
  br i1 %.not.i.i.i.i11, label %38, label %34

34:                                               ; preds = %33
  invoke void @lean_dec_ref_cold(ptr noundef nonnull %25)
          to label %38 unwind label %35

35:                                               ; preds = %34
  %36 = landingpad { ptr, i32 }
          catch ptr null
  %37 = extractvalue { ptr, i32 } %36, 0
  call void @__clang_call_terminate(ptr %37) #17
  unreachable

.critedge:                                        ; preds = %20
  call void @llvm.lifetime.end.p0(i64 16, ptr nonnull %4) #16
  br label %_ZN4lean9some_exprERKNS_4exprE.exit

38:                                               ; preds = %34, %33, %31, %23
  call void @llvm.lifetime.end.p0(i64 16, ptr nonnull %4) #16
  call void @llvm.experimental.noalias.scope.decl(metadata !31)
  store i8 1, ptr %0, align 8, !tbaa !34, !alias.scope !31
  %39 = getelementptr inbounds nuw i8, ptr %0, i64 8
  store ptr %5, ptr %39, align 8, !tbaa !3, !alias.scope !31
  br i1 %.not.i.i.i, label %40, label %_ZN4lean10object_refD2Ev.exit

40:                                               ; preds = %38
  %.val.i.i.i.i.i.i = load i32, ptr %5, align 4, !tbaa !10
  %41 = icmp sgt i32 %.val.i.i.i.i.i.i, 0
  br i1 %41, label %_ZN4lean9some_exprERKNS_4exprE.exit.thread.thread, label %43, !prof !13

_ZN4lean9some_exprERKNS_4exprE.exit.thread.thread: ; preds = %40
  %42 = add nuw nsw i32 %.val.i.i.i.i.i.i, 1
  store i32 %42, ptr %5, align 4, !tbaa !10, !noalias !31
  br label %50

43:                                               ; preds = %40
  %.not.i.i.i.i.i.i = icmp eq i32 %.val.i.i.i.i.i.i, 0
  br i1 %.not.i.i.i.i.i.i, label %_ZN4lean10object_refD2Ev.exit, label %44

44:                                               ; preds = %43
  invoke void @lean_inc_ref_cold(ptr noundef nonnull %5)
          to label %_ZN4lean9some_exprERKNS_4exprE.exit.thread unwind label %45

45:                                               ; preds = %44
  %46 = landingpad { ptr, i32 }
          cleanup
  br label %58

47:                                               ; preds = %17
  %48 = landingpad { ptr, i32 }
          cleanup
  call void @llvm.lifetime.end.p0(i64 16, ptr nonnull %4) #16
  br label %58

_ZN4lean9some_exprERKNS_4exprE.exit:              ; preds = %14, %.critedge
  store i8 0, ptr %0, align 8, !tbaa !34, !alias.scope !36
  br i1 %.not.i.i.i, label %_ZN4lean9some_exprERKNS_4exprE.exit.thread, label %_ZN4lean10object_refD2Ev.exit

_ZN4lean9some_exprERKNS_4exprE.exit.thread:       ; preds = %44, %_ZN4lean9some_exprERKNS_4exprE.exit
  %.pr = load i32, ptr %5, align 4, !tbaa !10
  %49 = icmp sgt i32 %.pr, 1
  br i1 %49, label %50, label %53, !prof !39

50:                                               ; preds = %_ZN4lean9some_exprERKNS_4exprE.exit.thread.thread, %_ZN4lean9some_exprERKNS_4exprE.exit.thread
  %51 = phi i32 [ %42, %_ZN4lean9some_exprERKNS_4exprE.exit.thread.thread ], [ %.pr, %_ZN4lean9some_exprERKNS_4exprE.exit.thread ]
  %52 = add nsw i32 %51, -1
  store i32 %52, ptr %5, align 4, !tbaa !10
  br label %_ZN4lean10object_refD2Ev.exit

53:                                               ; preds = %_ZN4lean9some_exprERKNS_4exprE.exit.thread
  %.not.i.i.i12 = icmp eq i32 %.pr, 0
  br i1 %.not.i.i.i12, label %_ZN4lean10object_refD2Ev.exit, label %54

54:                                               ; preds = %53
  invoke void @lean_dec_ref_cold(ptr noundef nonnull %5)
          to label %_ZN4lean10object_refD2Ev.exit unwind label %55

55:                                               ; preds = %54
  %56 = landingpad { ptr, i32 }
          catch ptr null
  %57 = extractvalue { ptr, i32 } %56, 0
  call void @__clang_call_terminate(ptr %57) #17
  unreachable

_ZN4lean10object_refD2Ev.exit:                    ; preds = %43, %38, %_ZN4lean9some_exprERKNS_4exprE.exit, %50, %53, %54
  call void @llvm.lifetime.end.p0(i64 8, ptr nonnull %3) #16
  ret void

58:                                               ; preds = %47, %45
  %.pn = phi { ptr, i32 } [ %46, %45 ], [ %48, %47 ]
  call void @_ZN4lean10object_refD2Ev(ptr noundef nonnull align 8 dereferenceable(8) %3) #16
  call void @llvm.lifetime.end.p0(i64 8, ptr nonnull %3) #16
  resume { ptr, i32 } %.pn
}